target datalayout = "e-m:e-p270:32:32-p271:32:32-p272:64:64-i64:64-i128:128-f80:128-n8:16:32:64-S128"
target triple = "x86_64-pc-linux-gnu"

%struct.erf_meta_section = type { i16, i16, i16, ptr }

; Function Attrs: null_pointer_is_valid sspstrong uwtable
define internal void @erf_meta_section_free(ptr noundef %0) #0 {
  %2 = alloca ptr, align 8
  %3 = alloca ptr, align 8
  store ptr %0, ptr %2, align 8
  call void @llvm.lifetime.start.p0(i64 8, ptr %3) #16
  %4 = load ptr, ptr %2, align 8
  store ptr %4, ptr %3, align 8
  %5 = load ptr, ptr %3, align 8
  %6 = icmp ne ptr %5, null
  br i1 %6, label %7, label %14

7:                                                ; preds = %1
  %8 = load ptr, ptr %3, align 8
  %9 = getelementptr inbounds nuw %struct.erf_meta_section, ptr %8, i32 0, i32 3
  %10 = load ptr, ptr %9, align 8
  %11 = call ptr @g_ptr_array_free(ptr noundef %10, i32 noundef 1)
  %12 = load ptr, ptr %3, align 8
  %13 = getelementptr inbounds nuw %struct.erf_meta_section, ptr %12, i32 0, i32 3
  store ptr null, ptr %13, align 8
  br label %14

14:                                               ; preds = %7, %1
  %15 = load ptr, ptr %3, align 8
  call void @g_free(ptr noundef %15)
  call void @llvm.lifetime.end.p0(i64 8, ptr %3) #16
  ret void
}