; Function Attrs: null_pointer_is_valid sspstrong uwtable
define internal void @erf_meta_section_free(ptr noundef %0) #0 {
  %.not = icmp eq ptr %0, null
  br i1 %.not, label %6, label %2

2:                                                ; preds = %1
  %3 = getelementptr inbounds nuw i8, ptr %0, i64 8
  %4 = load ptr, ptr %3, align 8
  %5 = tail call ptr @g_ptr_array_free(ptr noundef %4, i32 noundef 1)
  store ptr null, ptr %3, align 8
  br label %6

6:                                                ; preds = %2, %1
  tail call void @g_free(ptr noundef %0)
  ret void
}